target datalayout = "e-m:e-p270:32:32-p271:32:32-p272:64:64-i64:64-i128:128-f80:128-n8:16:32:64-S128"
target triple = "x86_64-pc-linux-gnu"

%struct.mbedtls_x509_crt = type { i32, %struct.mbedtls_asn1_buf, %struct.mbedtls_asn1_buf, i32, %struct.mbedtls_asn1_buf, %struct.mbedtls_asn1_buf, %struct.mbedtls_asn1_buf, %struct.mbedtls_asn1_buf, %struct.mbedtls_asn1_named_data, %struct.mbedtls_asn1_named_data, %struct.mbedtls_x509_time, %struct.mbedtls_x509_time, %struct.mbedtls_asn1_buf, %struct.mbedtls_pk_context, %struct.mbedtls_asn1_buf, %struct.mbedtls_asn1_buf, %struct.mbedtls_asn1_buf, %struct.mbedtls_asn1_sequence, %struct.mbedtls_asn1_buf, %struct.mbedtls_x509_authority, %struct.mbedtls_asn1_sequence, i32, i32, i32, i32, %struct.mbedtls_asn1_sequence, i8, %struct.mbedtls_asn1_buf, i32, i32, ptr, ptr }
%struct.mbedtls_asn1_named_data = type { %struct.mbedtls_asn1_buf, %struct.mbedtls_asn1_buf, ptr, i8 }
%struct.mbedtls_x509_time = type { i32, i32, i32, i32, i32, i32 }
%struct.mbedtls_pk_context = type { ptr, ptr }
%struct.mbedtls_x509_authority = type { %struct.mbedtls_asn1_buf, %struct.mbedtls_asn1_sequence, %struct.mbedtls_asn1_buf, %struct.mbedtls_asn1_buf }
%struct.mbedtls_asn1_sequence = type { %struct.mbedtls_asn1_buf, ptr }
%struct.mbedtls_asn1_buf = type { i32, i64, ptr }

; Function Attrs: nounwind uwtable
define hidden void @mbedtls_x509_crt_free(ptr noundef %0) #0 {
  %2 = alloca ptr, align 8
  %3 = alloca ptr, align 8
  %4 = alloca ptr, align 8
  store ptr %0, ptr %2, align 8, !tbaa !3
  call void @llvm.lifetime.start.p0(i64 8, ptr %3) #10
  %5 = load ptr, ptr %2, align 8, !tbaa !3
  store ptr %5, ptr %3, align 8, !tbaa !3
  call void @llvm.lifetime.start.p0(i64 8, ptr %4) #10
  br label %6

6:                                                ; preds = %70, %1
  %7 = load ptr, ptr %3, align 8, !tbaa !3
  %8 = icmp ne ptr %7, null
  br i1 %8, label %9, label %71

9:                                                ; preds = %6
  %10 = load ptr, ptr %3, align 8, !tbaa !3
  %11 = getelementptr inbounds nuw %struct.mbedtls_x509_crt, ptr %10, i32 0, i32 13
  call void @mbedtls_pk_free(ptr noundef %11)
  %12 = load ptr, ptr %3, align 8, !tbaa !3
  %13 = getelementptr inbounds nuw %struct.mbedtls_x509_crt, ptr %12, i32 0, i32 30
  %14 = load ptr, ptr %13, align 8, !tbaa !56
  call void @free(ptr noundef %14) #10
  %15 = load ptr, ptr %3, align 8, !tbaa !3
  %16 = getelementptr inbounds nuw %struct.mbedtls_x509_crt, ptr %15, i32 0, i32 8
  %17 = getelementptr inbounds nuw %struct.mbedtls_asn1_named_data, ptr %16, i32 0, i32 2
  %18 = load ptr, ptr %17, align 8, !tbaa !99
  call void @mbedtls_asn1_free_named_data_list_shallow(ptr noundef %18)
  %19 = load ptr, ptr %3, align 8, !tbaa !3
  %20 = getelementptr inbounds nuw %struct.mbedtls_x509_crt, ptr %19, i32 0, i32 9
  %21 = getelementptr inbounds nuw %struct.mbedtls_asn1_named_data, ptr %20, i32 0, i32 2
  %22 = load ptr, ptr %21, align 8, !tbaa !100
  call void @mbedtls_asn1_free_named_data_list_shallow(ptr noundef %22)
  %23 = load ptr, ptr %3, align 8, !tbaa !3
  %24 = getelementptr inbounds nuw %struct.mbedtls_x509_crt, ptr %23, i32 0, i32 25
  %25 = getelementptr inbounds nuw %struct.mbedtls_asn1_sequence, ptr %24, i32 0, i32 1
  %26 = load ptr, ptr %25, align 8, !tbaa !101
  call void @mbedtls_asn1_sequence_free(ptr noundef %26)
  %27 = load ptr, ptr %3, align 8, !tbaa !3
  %28 = getelementptr inbounds nuw %struct.mbedtls_x509_crt, ptr %27, i32 0, i32 17
  %29 = getelementptr inbounds nuw %struct.mbedtls_asn1_sequence, ptr %28, i32 0, i32 1
  %30 = load ptr, ptr %29, align 8, !tbaa !102
  call void @mbedtls_asn1_sequence_free(ptr noundef %30)
  %31 = load ptr, ptr %3, align 8, !tbaa !3
  %32 = getelementptr inbounds nuw %struct.mbedtls_x509_crt, ptr %31, i32 0, i32 20
  %33 = getelementptr inbounds nuw %struct.mbedtls_asn1_sequence, ptr %32, i32 0, i32 1
  %34 = load ptr, ptr %33, align 8, !tbaa !103
  call void @mbedtls_asn1_sequence_free(ptr noundef %34)
  %35 = load ptr, ptr %3, align 8, !tbaa !3
  %36 = getelementptr inbounds nuw %struct.mbedtls_x509_crt, ptr %35, i32 0, i32 19
  %37 = getelementptr inbounds nuw %struct.mbedtls_x509_authority, ptr %36, i32 0, i32 1
  %38 = getelementptr inbounds nuw %struct.mbedtls_asn1_sequence, ptr %37, i32 0, i32 1
  %39 = load ptr, ptr %38, align 8, !tbaa !104
  call void @mbedtls_asn1_sequence_free(ptr noundef %39)
  %40 = load ptr, ptr %3, align 8, !tbaa !3
  %41 = getelementptr inbounds nuw %struct.mbedtls_x509_crt, ptr %40, i32 0, i32 1
  %42 = getelementptr inbounds nuw %struct.mbedtls_asn1_buf, ptr %41, i32 0, i32 2
  %43 = load ptr, ptr %42, align 8, !tbaa !105
  %44 = icmp ne ptr %43, null
  br i1 %44, label %45, label %59

45:                                               ; preds = %9
  %46 = load ptr, ptr %3, align 8, !tbaa !3
  %47 = getelementptr inbounds nuw %struct.mbedtls_x509_crt, ptr %46, i32 0, i32 0
  %48 = load i32, ptr %47, align 8, !tbaa !106
  %49 = icmp ne i32 %48, 0
  br i1 %49, label %50, label %59

50:                                               ; preds = %45
  %51 = load ptr, ptr %3, align 8, !tbaa !3
  %52 = getelementptr inbounds nuw %struct.mbedtls_x509_crt, ptr %51, i32 0, i32 1
  %53 = getelementptr inbounds nuw %struct.mbedtls_asn1_buf, ptr %52, i32 0, i32 2
  %54 = load ptr, ptr %53, align 8, !tbaa !105
  %55 = load ptr, ptr %3, align 8, !tbaa !3
  %56 = getelementptr inbounds nuw %struct.mbedtls_x509_crt, ptr %55, i32 0, i32 1
  %57 = getelementptr inbounds nuw %struct.mbedtls_asn1_buf, ptr %56, i32 0, i32 1
  %58 = load i64, ptr %57, align 8, !tbaa !107
  call void @mbedtls_zeroize_and_free(ptr noundef %54, i64 noundef %58)
  br label %59

59:                                               ; preds = %50, %45, %9
  %60 = load ptr, ptr %3, align 8, !tbaa !3
  store ptr %60, ptr %4, align 8, !tbaa !3
  %61 = load ptr, ptr %3, align 8, !tbaa !3
  %62 = getelementptr inbounds nuw %struct.mbedtls_x509_crt, ptr %61, i32 0, i32 31
  %63 = load ptr, ptr %62, align 8, !tbaa !26
  store ptr %63, ptr %3, align 8, !tbaa !3
  %64 = load ptr, ptr %4, align 8, !tbaa !3
  call void @mbedtls_platform_zeroize(ptr noundef %64, i64 noundef 744)
  %65 = load ptr, ptr %4, align 8, !tbaa !3
  %66 = load ptr, ptr %2, align 8, !tbaa !3
  %67 = icmp ne ptr %65, %66
  br i1 %67, label %68, label %70

68:                                               ; preds = %59
  %69 = load ptr, ptr %4, align 8, !tbaa !3
  call void @free(ptr noundef %69) #10
  br label %70

70:                                               ; preds = %68, %59
  br label %6, !llvm.loop !108

71:                                               ; preds = %6
  call void @llvm.lifetime.end.p0(i64 8, ptr %4) #10
  call void @llvm.lifetime.end.p0(i64 8, ptr %3) #10
  ret void
}