; Function Attrs: nounwind uwtable
define hidden void @mbedtls_x509_crt_free(ptr noundef %0) local_unnamed_addr #0 {
  %.not24 = icmp eq ptr %0, null
  br i1 %.not24, label %._crit_edge, label %.lr.ph

.lr.ph:                                           ; preds = %1, %28
  %.025 = phi ptr [ %26, %28 ], [ %0, %1 ]
  %2 = getelementptr inbounds nuw i8, ptr %.025, i64 360
  tail call void @mbedtls_pk_free(ptr noundef nonnull %2) #17
  %3 = getelementptr inbounds nuw i8, ptr %.025, i64 728
  %4 = load ptr, ptr %3, align 8, !tbaa !66
  tail call void @free(ptr noundef %4) #17
  %5 = getelementptr inbounds nuw i8, ptr %.025, i64 208
  %6 = load ptr, ptr %5, align 8, !tbaa !138
  tail call void @mbedtls_asn1_free_named_data_list_shallow(ptr noundef %6) #17
  %7 = getelementptr inbounds nuw i8, ptr %.025, i64 272
  %8 = load ptr, ptr %7, align 8, !tbaa !139
  tail call void @mbedtls_asn1_free_named_data_list_shallow(ptr noundef %8) #17
  %9 = getelementptr inbounds nuw i8, ptr %.025, i64 680
  %10 = load ptr, ptr %9, align 8, !tbaa !140
  tail call void @mbedtls_asn1_sequence_free(ptr noundef %10) #17
  %11 = getelementptr inbounds nuw i8, ptr %.025, i64 472
  %12 = load ptr, ptr %11, align 8, !tbaa !141
  tail call void @mbedtls_asn1_sequence_free(ptr noundef %12) #17
  %13 = getelementptr inbounds nuw i8, ptr %.025, i64 632
  %14 = load ptr, ptr %13, align 8, !tbaa !142
  tail call void @mbedtls_asn1_sequence_free(ptr noundef %14) #17
  %15 = getelementptr inbounds nuw i8, ptr %.025, i64 552
  %16 = load ptr, ptr %15, align 8, !tbaa !143
  tail call void @mbedtls_asn1_sequence_free(ptr noundef %16) #17
  %17 = getelementptr inbounds nuw i8, ptr %.025, i64 24
  %18 = load ptr, ptr %17, align 8, !tbaa !27
  %.not21 = icmp eq ptr %18, null
  br i1 %.not21, label %24, label %19

19:                                               ; preds = %.lr.ph
  %20 = load i32, ptr %.025, align 8, !tbaa !28
  %.not22 = icmp eq i32 %20, 0
  br i1 %.not22, label %24, label %21

21:                                               ; preds = %19
  %22 = getelementptr inbounds nuw i8, ptr %.025, i64 16
  %23 = load i64, ptr %22, align 8, !tbaa !26
  tail call void @mbedtls_zeroize_and_free(ptr noundef nonnull %18, i64 noundef %23) #17
  br label %24

24:                                               ; preds = %21, %19, %.lr.ph
  %25 = getelementptr inbounds nuw i8, ptr %.025, i64 736
  %26 = load ptr, ptr %25, align 8, !tbaa !23
  tail call void @mbedtls_platform_zeroize(ptr noundef nonnull %.025, i64 noundef 744) #17
  %.not23 = icmp eq ptr %.025, %0
  br i1 %.not23, label %28, label %27

27:                                               ; preds = %24
  tail call void @free(ptr noundef nonnull %.025) #17
  br label %28

28:                                               ; preds = %27, %24
  %.not = icmp eq ptr %26, null
  br i1 %.not, label %._crit_edge, label %.lr.ph, !llvm.loop !144

._crit_edge:                                      ; preds = %28, %1
  ret void
}